target datalayout = "e-m:e-p270:32:32-p271:32:32-p272:64:64-i64:64-i128:128-f80:128-n8:16:32:64-S128"
target triple = "x86_64-pc-linux-gnu"

%struct.ARKodeARKStepMemRec = type { ptr, ptr, i32, i32, i32, i32, i32, i32, ptr, ptr, ptr, ptr, ptr, ptr, i32, i32, i32, i32, ptr, ptr, ptr, ptr, i32, ptr, double, double, double, double, i32, double, double, double, double, double, double, i32, i64, i32, i32, i32, ptr, ptr, ptr, ptr, ptr, ptr, i32, ptr, ptr, ptr, ptr, ptr, ptr, i32, i32, i64, i64, i64, i64, i64, ptr, ptr, i32, i32, i32, double, double, ptr, i32, ptr, ptr }
%struct.ARKodeMemRec = type { ptr, double, ptr, i32, i32, double, double, ptr, i32, double, ptr, i32, i32, ptr, ptr, i32, ptr, ptr, i32, ptr, ptr, ptr, ptr, ptr, ptr, ptr, ptr, ptr, ptr, ptr, ptr, ptr, ptr, ptr, i32, ptr, ptr, i32, ptr, i32, ptr, ptr, ptr, ptr, ptr, ptr, ptr, ptr, ptr, ptr, ptr, ptr, ptr, ptr, ptr, ptr, ptr, ptr, ptr, ptr, ptr, ptr, ptr, ptr, ptr, ptr, i32, ptr, ptr, ptr, ptr, ptr, ptr, ptr, i32, ptr, ptr, ptr, i32, ptr, ptr, ptr, ptr, ptr, ptr, ptr, i32, i32, i32, i32, double, double, double, double, double, double, double, double, double, double, i32, ptr, i64, i32, i32, i32, i32, i64, i64, i32, i64, i64, i64, i64, i64, i64, i64, double, double, double, double, double, i32, double, double, i32, i32, i32, i32, i32, i32, i32, i32, ptr, i32, ptr, ptr, ptr, ptr, i32, i32, i32 }

@__func__.arkStep_NlsFPFunction_MassIdent_TrivialPredAutonomous = private unnamed_addr constant [54 x i8] c"arkStep_NlsFPFunction_MassIdent_TrivialPredAutonomous\00", align 1

; Function Attrs: nounwind uwtable
define i32 @arkStep_NlsFPFunction_MassIdent_TrivialPredAutonomous(ptr noundef %0, ptr noundef %1, ptr noundef %2) #0 {
  %4 = alloca i32, align 4
  %5 = alloca ptr, align 8
  %6 = alloca ptr, align 8
  %7 = alloca ptr, align 8
  %8 = alloca ptr, align 8
  %9 = alloca ptr, align 8
  %10 = alloca i32, align 4
  %11 = alloca i32, align 4
  %12 = alloca i32, align 4
  store ptr %0, ptr %5, align 8, !tbaa !34
  store ptr %1, ptr %6, align 8, !tbaa !34
  store ptr %2, ptr %7, align 8, !tbaa !36
  call void @llvm.lifetime.start.p0(i64 8, ptr %8) #4
  call void @llvm.lifetime.start.p0(i64 8, ptr %9) #4
  call void @llvm.lifetime.start.p0(i64 4, ptr %10) #4
  call void @llvm.lifetime.start.p0(i64 4, ptr %11) #4
  %13 = load ptr, ptr %7, align 8, !tbaa !36
  %14 = call i32 @arkStep_AccessARKODEStepMem(ptr noundef %13, ptr noundef @__func__.arkStep_NlsFPFunction_MassIdent_TrivialPredAutonomous, ptr noundef %8, ptr noundef %9)
  store i32 %14, ptr %10, align 4, !tbaa !10
  %15 = load i32, ptr %10, align 4, !tbaa !10
  %16 = icmp ne i32 %15, 0
  br i1 %16, label %17, label %19

17:                                               ; preds = %3
  %18 = load i32, ptr %10, align 4, !tbaa !10
  store i32 %18, ptr %4, align 4
  store i32 1, ptr %12, align 4
  br label %107

19:                                               ; preds = %3
  %20 = load ptr, ptr %9, align 8, !tbaa !20
  %21 = getelementptr inbounds nuw %struct.ARKodeARKStepMemRec, ptr %20, i32 0, i32 12
  %22 = load ptr, ptr %21, align 8, !tbaa !45
  %23 = load ptr, ptr %5, align 8, !tbaa !34
  %24 = load ptr, ptr %8, align 8, !tbaa !3
  %25 = getelementptr inbounds nuw %struct.ARKodeMemRec, ptr %24, i32 0, i32 75
  %26 = load ptr, ptr %25, align 8, !tbaa !46
  call void @N_VLinearSum(double noundef 1.000000e+00, ptr noundef %22, double noundef 1.000000e+00, ptr noundef %23, ptr noundef %26)
  %27 = load ptr, ptr %9, align 8, !tbaa !20
  %28 = getelementptr inbounds nuw %struct.ARKodeARKStepMemRec, ptr %27, i32 0, i32 21
  %29 = load ptr, ptr %28, align 8, !tbaa !22
  %30 = call i32 @SUNNonlinSolGetCurIter(ptr noundef %29, ptr noundef %11)
  store i32 %30, ptr %10, align 4, !tbaa !10
  %31 = load i32, ptr %10, align 4, !tbaa !10
  %32 = icmp ne i32 %31, 0
  br i1 %32, label %33, label %34

33:                                               ; preds = %19
  store i32 -32, ptr %4, align 4
  store i32 1, ptr %12, align 4
  br label %107

34:                                               ; preds = %19
  %35 = load i32, ptr %11, align 4, !tbaa !10
  %36 = icmp eq i32 %35, 0
  br i1 %36, label %37, label %55

37:                                               ; preds = %34
  %38 = load ptr, ptr %9, align 8, !tbaa !20
  %39 = getelementptr inbounds nuw %struct.ARKodeARKStepMemRec, ptr %38, i32 0, i32 40
  %40 = load ptr, ptr %39, align 8, !tbaa !52
  %41 = icmp ne ptr %40, null
  br i1 %41, label %42, label %55

42:                                               ; preds = %37
  %43 = load ptr, ptr %9, align 8, !tbaa !20
  %44 = getelementptr inbounds nuw %struct.ARKodeARKStepMemRec, ptr %43, i32 0, i32 40
  %45 = load ptr, ptr %44, align 8, !tbaa !52
  %46 = load ptr, ptr %9, align 8, !tbaa !20
  %47 = getelementptr inbounds nuw %struct.ARKodeARKStepMemRec, ptr %46, i32 0, i32 9
  %48 = load ptr, ptr %47, align 8, !tbaa !53
  %49 = load ptr, ptr %9, align 8, !tbaa !20
  %50 = getelementptr inbounds nuw %struct.ARKodeARKStepMemRec, ptr %49, i32 0, i32 16
  %51 = load i32, ptr %50, align 8, !tbaa !54
  %52 = sext i32 %51 to i64
  %53 = getelementptr inbounds ptr, ptr %48, i64 %52
  %54 = load ptr, ptr %53, align 8, !tbaa !34
  call void @N_VScale(double noundef 1.000000e+00, ptr noundef %45, ptr noundef %54)
  br label %90

55:                                               ; preds = %37, %34
  %56 = load ptr, ptr %9, align 8, !tbaa !20
  %57 = getelementptr inbounds nuw %struct.ARKodeARKStepMemRec, ptr %56, i32 0, i32 23
  %58 = load ptr, ptr %57, align 8, !tbaa !33
  %59 = load ptr, ptr %8, align 8, !tbaa !3
  %60 = getelementptr inbounds nuw %struct.ARKodeMemRec, ptr %59, i32 0, i32 98
  %61 = load double, ptr %60, align 8, !tbaa !55
  %62 = load ptr, ptr %8, align 8, !tbaa !3
  %63 = getelementptr inbounds nuw %struct.ARKodeMemRec, ptr %62, i32 0, i32 75
  %64 = load ptr, ptr %63, align 8, !tbaa !46
  %65 = load ptr, ptr %9, align 8, !tbaa !20
  %66 = getelementptr inbounds nuw %struct.ARKodeARKStepMemRec, ptr %65, i32 0, i32 9
  %67 = load ptr, ptr %66, align 8, !tbaa !53
  %68 = load ptr, ptr %9, align 8, !tbaa !20
  %69 = getelementptr inbounds nuw %struct.ARKodeARKStepMemRec, ptr %68, i32 0, i32 16
  %70 = load i32, ptr %69, align 8, !tbaa !54
  %71 = sext i32 %70 to i64
  %72 = getelementptr inbounds ptr, ptr %67, i64 %71
  %73 = load ptr, ptr %72, align 8, !tbaa !34
  %74 = load ptr, ptr %8, align 8, !tbaa !3
  %75 = getelementptr inbounds nuw %struct.ARKodeMemRec, ptr %74, i32 0, i32 2
  %76 = load ptr, ptr %75, align 8, !tbaa !56
  %77 = call i32 %58(double noundef %61, ptr noundef %64, ptr noundef %73, ptr noundef %76)
  store i32 %77, ptr %10, align 4, !tbaa !10
  %78 = load ptr, ptr %9, align 8, !tbaa !20
  %79 = getelementptr inbounds nuw %struct.ARKodeARKStepMemRec, ptr %78, i32 0, i32 56
  %80 = load i64, ptr %79, align 8, !tbaa !57
  %81 = add nsw i64 %80, 1
  store i64 %81, ptr %79, align 8, !tbaa !57
  %82 = load i32, ptr %10, align 4, !tbaa !10
  %83 = icmp slt i32 %82, 0
  br i1 %83, label %84, label %85

84:                                               ; preds = %55
  store i32 -8, ptr %4, align 4
  store i32 1, ptr %12, align 4
  br label %107

85:                                               ; preds = %55
  %86 = load i32, ptr %10, align 4, !tbaa !10
  %87 = icmp sgt i32 %86, 0
  br i1 %87, label %88, label %89

88:                                               ; preds = %85
  store i32 9, ptr %4, align 4
  store i32 1, ptr %12, align 4
  br label %107

89:                                               ; preds = %85
  br label %90

90:                                               ; preds = %89, %42
  %91 = load ptr, ptr %9, align 8, !tbaa !20
  %92 = getelementptr inbounds nuw %struct.ARKodeARKStepMemRec, ptr %91, i32 0, i32 24
  %93 = load double, ptr %92, align 8, !tbaa !59
  %94 = load ptr, ptr %9, align 8, !tbaa !20
  %95 = getelementptr inbounds nuw %struct.ARKodeARKStepMemRec, ptr %94, i32 0, i32 9
  %96 = load ptr, ptr %95, align 8, !tbaa !53
  %97 = load ptr, ptr %9, align 8, !tbaa !20
  %98 = getelementptr inbounds nuw %struct.ARKodeARKStepMemRec, ptr %97, i32 0, i32 16
  %99 = load i32, ptr %98, align 8, !tbaa !54
  %100 = sext i32 %99 to i64
  %101 = getelementptr inbounds ptr, ptr %96, i64 %100
  %102 = load ptr, ptr %101, align 8, !tbaa !34
  %103 = load ptr, ptr %9, align 8, !tbaa !20
  %104 = getelementptr inbounds nuw %struct.ARKodeARKStepMemRec, ptr %103, i32 0, i32 11
  %105 = load ptr, ptr %104, align 8, !tbaa !58
  %106 = load ptr, ptr %6, align 8, !tbaa !34
  call void @N_VLinearSum(double noundef %93, ptr noundef %102, double noundef 1.000000e+00, ptr noundef %105, ptr noundef %106)
  store i32 0, ptr %4, align 4
  store i32 1, ptr %12, align 4
  br label %107

107:                                              ; preds = %90, %88, %84, %33, %17
  call void @llvm.lifetime.end.p0(i64 4, ptr %11) #4
  call void @llvm.lifetime.end.p0(i64 4, ptr %10) #4
  call void @llvm.lifetime.end.p0(i64 8, ptr %9) #4
  call void @llvm.lifetime.end.p0(i64 8, ptr %8) #4
  %108 = load i32, ptr %4, align 4
  ret i32 %108
}