; Function Attrs: nounwind uwtable
define i32 @arkStep_NlsFPFunction_MassIdent_TrivialPredAutonomous(ptr noundef %0, ptr noundef %1, ptr noundef %2) #0 {
  %4 = alloca ptr, align 8
  %5 = alloca ptr, align 8
  %6 = alloca i32, align 4
  call void @llvm.lifetime.start.p0(i64 8, ptr nonnull %4) #5
  call void @llvm.lifetime.start.p0(i64 8, ptr nonnull %5) #5
  call void @llvm.lifetime.start.p0(i64 4, ptr nonnull %6) #5
  %7 = call i32 @arkStep_AccessARKODEStepMem(ptr noundef %2, ptr noundef nonnull @__func__.arkStep_NlsFPFunction_MassIdent_TrivialPredAutonomous, ptr noundef nonnull %4, ptr noundef nonnull %5) #5
  %.not = icmp eq i32 %7, 0
  br i1 %.not, label %8, label %70

8:                                                ; preds = %3
  %9 = load ptr, ptr %5, align 8, !tbaa !14
  %10 = getelementptr inbounds nuw i8, ptr %9, i64 72
  %11 = load ptr, ptr %10, align 8, !tbaa !39
  %12 = load ptr, ptr %4, align 8, !tbaa !40
  %13 = getelementptr inbounds nuw i8, ptr %12, i64 584
  %14 = load ptr, ptr %13, align 8, !tbaa !42
  call void @N_VLinearSum(double noundef 1.000000e+00, ptr noundef %11, double noundef 1.000000e+00, ptr noundef %0, ptr noundef %14) #5
  %15 = load ptr, ptr %5, align 8, !tbaa !14
  %16 = getelementptr inbounds nuw i8, ptr %15, i64 128
  %17 = load ptr, ptr %16, align 8, !tbaa !16
  %18 = call i32 @SUNNonlinSolGetCurIter(ptr noundef %17, ptr noundef nonnull %6) #5
  %.not11 = icmp eq i32 %18, 0
  br i1 %.not11, label %19, label %70

19:                                               ; preds = %8
  %20 = load i32, ptr %6, align 4, !tbaa !31
  %21 = icmp eq i32 %20, 0
  %.pre = load ptr, ptr %5, align 8, !tbaa !14
  br i1 %21, label %22, label %33

22:                                               ; preds = %19
  %23 = getelementptr inbounds nuw i8, ptr %.pre, i64 272
  %24 = load ptr, ptr %23, align 8, !tbaa !48
  %.not12 = icmp eq ptr %24, null
  br i1 %.not12, label %33, label %25

25:                                               ; preds = %22
  %26 = getelementptr inbounds nuw i8, ptr %.pre, i64 48
  %27 = load ptr, ptr %26, align 8, !tbaa !49
  %28 = getelementptr inbounds nuw i8, ptr %.pre, i64 96
  %29 = load i32, ptr %28, align 8, !tbaa !50
  %30 = sext i32 %29 to i64
  %31 = getelementptr inbounds ptr, ptr %27, i64 %30
  %32 = load ptr, ptr %31, align 8, !tbaa !51
  call void @N_VScale(double noundef 1.000000e+00, ptr noundef nonnull %24, ptr noundef %32) #5
  %.pre14 = load ptr, ptr %5, align 8, !tbaa !14
  br label %57

33:                                               ; preds = %22, %19
  %34 = getelementptr inbounds nuw i8, ptr %.pre, i64 144
  %35 = load ptr, ptr %34, align 8, !tbaa !29
  %36 = load ptr, ptr %4, align 8, !tbaa !40
  %37 = getelementptr inbounds nuw i8, ptr %36, i64 752
  %38 = load double, ptr %37, align 8, !tbaa !52
  %39 = getelementptr inbounds nuw i8, ptr %36, i64 584
  %40 = load ptr, ptr %39, align 8, !tbaa !42
  %41 = getelementptr inbounds nuw i8, ptr %.pre, i64 48
  %42 = load ptr, ptr %41, align 8, !tbaa !49
  %43 = getelementptr inbounds nuw i8, ptr %.pre, i64 96
  %44 = load i32, ptr %43, align 8, !tbaa !50
  %45 = sext i32 %44 to i64
  %46 = getelementptr inbounds ptr, ptr %42, i64 %45
  %47 = load ptr, ptr %46, align 8, !tbaa !51
  %48 = getelementptr inbounds nuw i8, ptr %36, i64 16
  %49 = load ptr, ptr %48, align 8, !tbaa !53
  %50 = call i32 %35(double noundef %38, ptr noundef %40, ptr noundef %47, ptr noundef %49) #5
  %51 = load ptr, ptr %5, align 8, !tbaa !14
  %52 = getelementptr inbounds nuw i8, ptr %51, i64 392
  %53 = load i64, ptr %52, align 8, !tbaa !54
  %54 = add nsw i64 %53, 1
  store i64 %54, ptr %52, align 8, !tbaa !54
  %55 = icmp slt i32 %50, 0
  br i1 %55, label %70, label %56

56:                                               ; preds = %33
  %.not13 = icmp eq i32 %50, 0
  br i1 %.not13, label %57, label %70

57:                                               ; preds = %56, %25
  %58 = phi ptr [ %51, %56 ], [ %.pre14, %25 ]
  %59 = getelementptr inbounds nuw i8, ptr %58, i64 152
  %60 = load double, ptr %59, align 8, !tbaa !57
  %61 = getelementptr inbounds nuw i8, ptr %58, i64 48
  %62 = load ptr, ptr %61, align 8, !tbaa !49
  %63 = getelementptr inbounds nuw i8, ptr %58, i64 96
  %64 = load i32, ptr %63, align 8, !tbaa !50
  %65 = sext i32 %64 to i64
  %66 = getelementptr inbounds ptr, ptr %62, i64 %65
  %67 = load ptr, ptr %66, align 8, !tbaa !51
  %68 = getelementptr inbounds nuw i8, ptr %58, i64 64
  %69 = load ptr, ptr %68, align 8, !tbaa !56
  call void @N_VLinearSum(double noundef %60, ptr noundef %67, double noundef 1.000000e+00, ptr noundef %69, ptr noundef %1) #5
  br label %70

70:                                               ; preds = %56, %33, %8, %3, %57
  %.0 = phi i32 [ 0, %57 ], [ %7, %3 ], [ -32, %8 ], [ -8, %33 ], [ 9, %56 ]
  call void @llvm.lifetime.end.p0(i64 4, ptr nonnull %6) #5
  call void @llvm.lifetime.end.p0(i64 8, ptr nonnull %5) #5
  call void @llvm.lifetime.end.p0(i64 8, ptr nonnull %4) #5
  ret i32 %.0
}